; Function Attrs: nounwind uwtable
define ptr @l_Array_mapMUnsafe_map___at_Lean_Elab_Deriving_Hashable_mkMatch_mkAlts___spec__7(i64 noundef %0, i64 noundef %1, ptr noundef %2) local_unnamed_addr #0 {
  %.not38 = icmp ult i64 %1, %0
  br i1 %.not38, label %.lr.ph, label %._crit_edge

.lr.ph:                                           ; preds = %3, %46
  %.01740 = phi i64 [ %30, %46 ], [ %1, %3 ]
  %.01939 = phi ptr [ %.0.i.i27, %46 ], [ %2, %3 ]
  %4 = getelementptr inbounds nuw i8, ptr %.01939, i64 24
  %5 = getelementptr inbounds nuw [0 x ptr], ptr %4, i64 0, i64 %.01740
  %6 = load ptr, ptr %5, align 8, !tbaa !4
  %7 = ptrtoint ptr %6 to i64
  %8 = and i64 %7, 1
  %.not.i = icmp eq i64 %8, 0
  br i1 %.not.i, label %9, label %lean_array_uget.exit

9:                                                ; preds = %.lr.ph
  %.val.i.i = load i32, ptr %6, align 4, !tbaa !8
  %10 = icmp sgt i32 %.val.i.i, 0
  br i1 %10, label %11, label %13, !prof !11

11:                                               ; preds = %9
  %12 = add nuw i32 %.val.i.i, 1
  store i32 %12, ptr %6, align 4, !tbaa !8
  br label %lean_array_uget.exit

13:                                               ; preds = %9
  %.not.i.i = icmp eq i32 %.val.i.i, 0
  br i1 %.not.i.i, label %lean_array_uget.exit, label %14

14:                                               ; preds = %13
  tail call void @lean_inc_ref_cold(ptr noundef nonnull %6) #5
  br label %lean_array_uget.exit

lean_array_uget.exit:                             ; preds = %.lr.ph, %11, %13, %14
  %.val.i.i22 = load i32, ptr %.01939, align 4, !tbaa !8
  %15 = icmp eq i32 %.val.i.i22, 1
  br i1 %15, label %lean_ensure_exclusive_array.exit.i, label %16

16:                                               ; preds = %lean_array_uget.exit
  %17 = tail call ptr @lean_copy_expand_array(ptr noundef nonnull %.01939, i1 noundef zeroext false) #5
  br label %lean_ensure_exclusive_array.exit.i

lean_ensure_exclusive_array.exit.i:               ; preds = %16, %lean_array_uget.exit
  %.0.i.i = phi ptr [ %17, %16 ], [ %.01939, %lean_array_uget.exit ]
  %18 = getelementptr inbounds nuw i8, ptr %.0.i.i, i64 24
  %19 = getelementptr inbounds nuw ptr, ptr %18, i64 %.01740
  %20 = load ptr, ptr %19, align 8, !tbaa !4
  %21 = ptrtoint ptr %20 to i64
  %22 = and i64 %21, 1
  %.not.i23 = icmp eq i64 %22, 0
  br i1 %.not.i23, label %23, label %lean_array_uset.exit

23:                                               ; preds = %lean_ensure_exclusive_array.exit.i
  %24 = load i32, ptr %20, align 4, !tbaa !8
  %25 = icmp sgt i32 %24, 1
  br i1 %25, label %26, label %28, !prof !11

26:                                               ; preds = %23
  %27 = add nsw i32 %24, -1
  store i32 %27, ptr %20, align 4, !tbaa !8
  br label %lean_array_uset.exit

28:                                               ; preds = %23
  %.not.i.i24 = icmp eq i32 %24, 0
  br i1 %.not.i.i24, label %lean_array_uset.exit, label %29

29:                                               ; preds = %28
  tail call void @lean_dec_ref_cold(ptr noundef nonnull %20) #5
  br label %lean_array_uset.exit

lean_array_uset.exit:                             ; preds = %lean_ensure_exclusive_array.exit.i, %26, %28, %29
  store ptr inttoptr (i64 1 to ptr), ptr %19, align 8, !tbaa !4
  %30 = add nuw i64 %.01740, 1
  %.val.i.i25 = load i32, ptr %.0.i.i, align 4, !tbaa !8
  %31 = icmp eq i32 %.val.i.i25, 1
  br i1 %31, label %lean_ensure_exclusive_array.exit.i26, label %32

32:                                               ; preds = %lean_array_uset.exit
  %33 = tail call ptr @lean_copy_expand_array(ptr noundef nonnull %.0.i.i, i1 noundef zeroext false) #5
  %.phi.trans.insert = getelementptr inbounds nuw i8, ptr %33, i64 24
  %.phi.trans.insert41 = getelementptr inbounds nuw ptr, ptr %.phi.trans.insert, i64 %.01740
  %.pre = load ptr, ptr %.phi.trans.insert41, align 8, !tbaa !4
  br label %lean_ensure_exclusive_array.exit.i26

lean_ensure_exclusive_array.exit.i26:             ; preds = %32, %lean_array_uset.exit
  %34 = phi ptr [ %.pre, %32 ], [ inttoptr (i64 1 to ptr), %lean_array_uset.exit ]
  %.0.i.i27 = phi ptr [ %33, %32 ], [ %.0.i.i, %lean_array_uset.exit ]
  %35 = getelementptr inbounds nuw i8, ptr %.0.i.i27, i64 24
  %36 = getelementptr inbounds nuw ptr, ptr %35, i64 %.01740
  %37 = ptrtoint ptr %34 to i64
  %38 = and i64 %37, 1
  %.not.i28 = icmp eq i64 %38, 0
  br i1 %.not.i28, label %39, label %46

39:                                               ; preds = %lean_ensure_exclusive_array.exit.i26
  %40 = load i32, ptr %34, align 4, !tbaa !8
  %41 = icmp sgt i32 %40, 1
  br i1 %41, label %42, label %44, !prof !11

42:                                               ; preds = %39
  %43 = add nsw i32 %40, -1
  store i32 %43, ptr %34, align 4, !tbaa !8
  br label %46

44:                                               ; preds = %39
  %.not.i.i29 = icmp eq i32 %40, 0
  br i1 %.not.i.i29, label %46, label %45

45:                                               ; preds = %44
  tail call void @lean_dec_ref_cold(ptr noundef nonnull %34) #5
  br label %46

46:                                               ; preds = %45, %44, %42, %lean_ensure_exclusive_array.exit.i26
  store ptr %6, ptr %36, align 8, !tbaa !4
  %exitcond.not = icmp eq i64 %30, %0
  br i1 %exitcond.not, label %._crit_edge, label %.lr.ph

._crit_edge:                                      ; preds = %46, %3
  %.019.lcssa = phi ptr [ %2, %3 ], [ %.0.i.i27, %46 ]
  ret ptr %.019.lcssa
}